_ZNK7WebCore12SharedBuffer4sizeEv
_ZN7WebCore5Frame6createEPNS_4PageEPNS_21HTMLFrameOwnerElementEPNS_17FrameLoaderClientE
_ZN7WebCore5Frame10createViewERKNS_7IntSizeERKNS_5ColorEbS3_RKNS_7IntRectEbNS_13ScrollbarModeEbSA_b
_ZN7WebCore5ColorD1Ev
_ZN7WebCore5Color10tagAsValidEv
_ZN7WebCore3URLC1ERKS0_RKN3WTF6StringE
_ZN7WebCore20ResourceResponseBaseC2ERKNS_3URLERKN3WTF6StringExS7_
_ZN7WebCore16FrameLoadRequestC1EPNS_5FrameERKNS_15ResourceRequestENS_28ShouldOpenExternalURLsPolicyERKNS_14SubstituteDataE
_ZN7WebCore12SharedBufferD1Ev
_ZN7WebCore12SharedBufferC1EPKcj
_ZN7WebCore11FrameLoader6reloadEbb
_ZN7WebCore11FrameLoader4loadERKNS_16FrameLoadRequestE
_ZN7WebCore11FrameLoader14stopAllLoadersENS_26ClearProvisionalItemPolicyE
_ZNK7WebCore8Document21haveStylesheetsLoadedEv
_ZNK7WebCore3URL4hostEv
_ZNK7WebCore19ResourceRequestBase8priorityEv
_ZNK7WebCore14ResourceLoader11frameLoaderEv
_ZNK7WebCore14DocumentLoader21archiveResourceForURLERKNS_3URLE
_ZN7WebCore9TimerBaseD2Ev
_ZN7WebCore9TimerBaseC2Ev
_ZN7WebCore9TimerBase5startEdd
_ZN7WebCore9TimerBase4stopEv
_ZN7WebCore43initializeMaximumHTTPConnectionCountPerHostEv
_ZN7WebCore26NetscapePlugInStreamLoader6createERNS_5FrameERNS_32NetscapePlugInStreamLoaderClientERKNS_15ResourceRequestE
_ZN7WebCore20ResourceHandleClientD2Ev
_ZN7WebCore20ResourceHandleClientC2Ev
_ZN7WebCore20ResourceHandleClient23didReceiveResponseAsyncEPNS_14ResourceHandleEONS_16ResourceResponseE
_ZN7WebCore18platformStrategiesEv
_ZN7WebCore17SubresourceLoader6createERNS_5FrameERNS_14CachedResourceERKNS_15ResourceRequestERKNS_21ResourceLoaderOptionsE
_ZN7WebCore14ResourceLoader5startEv
_ZN7WebCore14ResourceHandle6createEPNS_17NetworkingContextERKNS_15ResourceRequestEPNS_20ResourceHandleClientEbb
_ZN7WebCore14ResourceHandle25loadResourceSynchronouslyEPNS_17NetworkingContextERKNS_15ResourceRequestENS_17StoredCredentialsERNS_13ResourceErrorERNS_16ResourceResponseERN3WTF6VectorIcLm0ENSB_15CrashOnOverflowELm16EEE
_ZN7WebCore14ResourceHandle23continueWillSendRequestEONS_15ResourceRequestE
_ZN7WebCore14ResourceHandle11clearClientEv
_ZN7WebCore14LoaderStrategyD2Ev
_ZN7WebCore14DocumentLoaderD2Ev
_ZN7WebCore14DocumentLoaderC2ERKNS_15ResourceRequestERKNS_14SubstituteDataE
_ZN7WebCore14DocumentLoader16responseReceivedERNS_14CachedResourceERKNS_16ResourceResponseE
_ZN7WebCore14DocumentLoader16redirectReceivedERNS_14CachedResourceERNS_15ResourceRequestERKNS_16ResourceResponseE
_ZN7WebCore14DocumentLoader15detachFromFrameEv
_ZN7WebCore14DocumentLoader14notifyFinishedERNS_14CachedResourceE
_ZN7WebCore14DocumentLoader13attachToFrameEv
_ZN7WebCore14DocumentLoader12dataReceivedERNS_14CachedResourceEPKci
_ZTVN7WebCore16BlobRegistryImplE
_ZN7WebCore9addCookieERKNS_21NetworkStorageSessionERKNS_3URLERKNS_6CookieE
_ZN7WebCore29cookieRequestHeaderFieldValueERKNS_21NetworkStorageSessionERKNS_3URLES5_
_ZN7WebCore21setPlatformStrategiesEPNS_18PlatformStrategiesE
_ZN7WebCore17setCookiesFromDOMERKNS_21NetworkStorageSessionERKNS_3URLES5_RKN3WTF6StringE
_ZN7WebCore14cookiesEnabledERKNS_21NetworkStorageSessionERKNS_3URLES5_
_ZN7WebCore13getRawCookiesERKNS_21NetworkStorageSessionERKNS_3URLES5_RN3WTF6VectorINS_6CookieELm0ENS6_15CrashOnOverflowELm16EEE
_ZN7WebCore13cookiesForDOMERKNS_21NetworkStorageSessionERKNS_3URLES5_
_ZN7WebCore12deleteCookieERKNS_21NetworkStorageSessionERKNS_3URLERKN3WTF6StringE
_ZN7WebCore21NetworkStorageSession21defaultStorageSessionEv
_ZN7WebCore21NetworkStorageSession14storageSessionENS_9SessionIDE
_ZN7WebCore21NetworkStorageSession14destroySessionENS_9SessionIDE
_ZN3WTF11emptyStringEv
_ZNK7WebCore9FrameTree6parentEv
_ZNK7WebCore20ResourceResponseBase8mimeTypeEv
_ZNK7WebCore20ResourceResponseBase3urlEv
_ZNK7WebCore20ResourceResponseBase14httpStatusCodeEv
_ZNK7WebCore19ResourceRequestBase3urlEv
_ZNK7WebCore17ResourceErrorBase8lazyInitEv
_ZNK7WebCore17FrameLoaderClient11hasHTMLViewEv
_ZNK3WTF6String23convertToASCIILowercaseEv
_ZN7WebCore9FrameTree11appendChildEN3WTF10PassRefPtrINS_5FrameEEE
_ZN7WebCore8FormDataD1Ev
_ZN7WebCore3URL10invalidateEv
_ZN7WebCore20ResourceResponseBaseC2Ev
_ZN7WebCore19ResourceRequestBase24s_defaultTimeoutIntervalE
_ZN7WebCore16MIMETypeRegistry27isSupportedNonImageMIMETypeERKN3WTF6StringE
_ZN7WebCore16MIMETypeRegistry24isSupportedImageMIMETypeERKN3WTF6StringE
_ZN7WebCore16MIMETypeRegistry15canShowMIMETypeERKN3WTF6StringE
_ZN7WebCore15mimeTypeFromURLERKNS_3URLE
_ZN7WebCore14DocumentLoader22cancelMainResourceLoadERKNS_13ResourceErrorE
_ZN7WebCore14DocumentLoader10commitDataEPKcm
_ZN7WebCore13HTTPHeaderMapC1Ev
_ZN7WebCore11FrameLoader21loadURLIntoChildFrameERKNS_3URLERKN3WTF6StringEPNS_5FrameE
_ZN3WTF6StringC1ENS_12ASCIILiteralE
_ZN3WTF5equalEPKNS_10StringImplES2_
_ZN7WebCore9PageCache9singletonEv
_ZN7WebCore9PageCache6removeERNS_11HistoryItemE
_ZN7WebCore11HistoryItemD1Ev
_ZN3WTF11fastReallocEPvm
_ZNK7WebCore9FrameView11needsLayoutEv
_ZNK7WebCore6Widget9frameRectEv
_ZNK7WebCore6Editor7Command7executeEPNS_5EventE
_ZNK7WebCore6Editor7Command15isTextInsertionEv
_ZNK7WebCore21BackForwardController9backCountEv
_ZNK7WebCore21BackForwardController12forwardCountEv
_ZNK7WebCore15FocusController18focusedOrMainFrameEv
_ZNK7WebCore13KeyboardEvent8charCodeEv
_ZNK7WebCore13KeyboardEvent7keyCodeEv
_ZNK3WTF10StringImpl12hashSlowCaseEv
_ZN7WebCore9FrameView6layoutEb
_ZN7WebCore9FrameView14setNeedsLayoutEv
_ZN7WebCore9FrameTree7setNameERKN3WTF12AtomicStringE
_ZN7WebCore8Settings27setLoadsImagesAutomaticallyEb
_ZN7WebCore8Settings23setPictographFontFamilyERKN3WTF12AtomicStringE11UScriptCode
_ZN7WebCore8Settings22setSansSerifFontFamilyERKN3WTF12AtomicStringE11UScriptCode
_ZN7WebCore8Settings21setStandardFontFamilyERKN3WTF12AtomicStringE11UScriptCode
_ZN7WebCore8Settings20setFantasyFontFamilyERKN3WTF12AtomicStringE11UScriptCode
_ZN7WebCore8Settings20setCursiveFontFamilyERKN3WTF12AtomicStringE11UScriptCode
_ZN7WebCore8Settings18setSerifFontFamilyERKN3WTF12AtomicStringE11UScriptCode
_ZN7WebCore8Settings18setFixedFontFamilyERKN3WTF12AtomicStringE11UScriptCode
_ZN7WebCore8Settings16setScriptEnabledEb
_ZN7WebCore8Settings16setImagesEnabledEb
_ZN7WebCore7IntRectC1ERKNS_9FloatRectE
_ZN7WebCore7IntRect5scaleEf
_ZN7WebCore6Editor7commandERKN3WTF6StringE
_ZN7WebCore6Editor10insertTextERKN3WTF6StringEPNS_5EventENS_18TextEventInputTypeE
_ZN7WebCore4PageC1EONS_17PageConfigurationE
_ZN7WebCore4Page20setDeviceScaleFactorEf
_ZN7WebCore24StorageNamespaceProviderD2Ev
_ZN7WebCore24StorageNamespaceProviderC2Ev
_ZN7WebCore23ApplicationCacheStorage6createERKN3WTF6StringES4_
_ZN7WebCore21mainThreadNormalWorldEv
_ZN7WebCore21BackForwardController9goForwardEv
_ZN7WebCore21BackForwardController6goBackEv
_ZN7WebCore21BackForwardController15goBackOrForwardEi
_ZN7WebCore19UserContentProviderD2Ev
_ZN7WebCore19UserContentProviderC2Ev
_ZN7WebCore18PluginInfoProviderD2Ev
_ZN7WebCore17PageConfigurationD1Ev
_ZN7WebCore17PageConfigurationC1EON3WTF9UniqueRefINS_12EditorClientEEEONS1_3RefINS_14SocketProviderEEE
_ZN7WebCore16threadGlobalDataEv
_ZN7WebCore16VisitedLinkStoreD2Ev
_ZN7WebCore16VisitedLinkStoreC2Ev
_ZN7WebCore16ScriptController10initScriptERNS_15DOMWrapperWorldE
_ZN7WebCore16DatabaseProviderD2Ev
_ZN7WebCore15GraphicsContextD1Ev
_ZN7WebCore15GraphicsContextC1EN10ultralight6RefPtrINS1_6CanvasEEE
_ZN7WebCore15FocusController9setActiveEb
_ZN7WebCore14SQLiteDatabaseD1Ev
_ZN7WebCore14FrameSelection10setFocusedEb
_ZN7WebCore12EventHandler8keyEventERKNS_21PlatformKeyboardEventE
_ZN7WebCore12EventHandler23handleMouseReleaseEventERKNS_18PlatformMouseEventE
_ZN7WebCore12EventHandler21handleMousePressEventERKNS_18PlatformMouseEventE
_ZN7WebCore12EventHandler16handleWheelEventERKNS_18PlatformWheelEventE
_ZN7WebCore12EventHandler10mouseMovedERKNS_18PlatformMouseEventE
_ZN7WebCore11FrameLoader4initEv
_ZN3WTF8WallTime3nowEv
_ZN3WTF6StringC1EPKt
_ZN3WTF6StringC1EPKc
_ZN3WTF5equalERKNS_10StringImplES2_
_ZN3WTF20initializeMainThreadEv
_ZN3WTF16fastZeroedMallocEm
_ZN3WTF16AtomicStringImpl3addEPKh
_ZN3WTF16AtomicStringImpl11addSlowCaseERNS_10StringImplE
_ZN3JSC19initializeThreadingEv
_ZN3JSC14JSGlobalObject10globalExecEv
_ZN7WebCore21MainThreadSharedTimer9singletonEv
_ZN7WebCore21MainThreadSharedTimer6updateEv
_ZN3WTF7RunLoop7iterateEv
_ZN3WTF7RunLoop7currentEv
_ZN3WTF7RunLoop21initializeMainRunLoopEv
_ZNK7WebCore5Frame15contentRendererEv
_ZN7WebCore9FrameView39flushCompositingStateIncludingSubframesEv
_ZN7WebCore9FrameView37updateLayoutAndStyleIfNeededRecursiveEv
_ZN7WebCore9FloatSizeC1ERKNS_7IntSizeE
_ZN7WebCore23GraphicsLayerUltralight6UpdateEv
_ZN7WebCore23GraphicsLayerUltralight5PaintEN10ultralight6RefPtrINS1_6CanvasEEE
_ZN7WebCore23GraphicsLayerUltralight17ComputeTransformsEv
_ZN7WebCore20TransformationMatrix9translateEdd
_ZN7WebCore20TransformationMatrix5scaleEd
_ZN7WebCore16enclosingIntRectERKNS_9FloatRectE
_ZN7WebCore15GraphicsContext7restoreEv
_ZN7WebCore15GraphicsContext4saveEv
_ZN7WebCore15GraphicsContext4clipERKNS_9FloatRectE
_ZN7WebCore13GraphicsLayer6createEPNS_20GraphicsLayerFactoryERNS_19GraphicsLayerClientENS0_4TypeE
_ZN7WebCore13GraphicsLayer17removeAllChildrenEv
_ZN7WebCore10ScrollView5paintERNS_15GraphicsContextERKNS_7IntRectENS_6Widget25SecurityOriginPaintPolicyE
_ZNK3WTF6String4utf8Ev
_ZN3WTF8fastFreeEPv
_ZN3WTF7Unicode18convertUTF8ToUTF16EPPKcS2_PPtS4_Pbb
_ZN3WTF6StringC1EPKtj
_ZN3WTF10fastMallocEm
_ZN3WTF10StringImpl7destroyEPS0_
WTFCrash
_ZN7WebCore17FrameLoaderClient20useIconLoadingClientEv
_ZNK7WebCore17FrameLoaderClient28dispatchDidFailToStartPluginEPKNS_14PluginViewBaseE
_ZNK7WebCore17FrameLoaderClient29overrideContentSecurityPolicyEv
_ZTVN7WebCore14SocketProviderE
_ZN7WebCore17FrameLoaderClient22getLoadDecisionForIconERKNS_8LinkIconEm
_ZN7WebCore14SocketProviderD2Ev
_ZN7WebCore17FrameLoaderClient19finishedLoadingIconEmPNS_12SharedBufferE
_ZN7WebCore14SocketProviderD0Ev
JSCheckScriptSyntax
JSClassCreate
JSClassRelease
JSClassRetain
JSContextCreateBacktrace
JSContextGetGlobalContext
JSContextGetGlobalObject
JSContextGetGroup
JSContextGroupClearExecutionTimeLimit
JSContextGroupCreate
JSContextGroupRelease
JSContextGroupRetain
JSContextGroupSetExecutionTimeLimit
JSDisableGCTimer
JSEvaluateScript
JSGarbageCollect
JSGlobalContextCopyName
JSGlobalContextCreate
JSGlobalContextCreateInGroup
JSGlobalContextGetIncludesNativeCallStackWhenReportingExceptions
JSGlobalContextGetRemoteInspectionEnabled
JSGlobalContextRelease
JSGlobalContextRetain
JSGlobalContextSetIncludesNativeCallStackWhenReportingExceptions
JSGlobalContextSetName
JSGlobalContextSetRemoteInspectionEnabled
JSObjectCallAsConstructor
JSObjectCallAsFunction
JSObjectCopyPropertyNames
JSObjectDeletePrivateProperty
JSObjectDeleteProperty
JSObjectGetPrivate
JSObjectGetPrivateProperty
JSObjectGetProperty
JSObjectGetPropertyAtIndex
JSObjectGetPrototype
JSObjectHasProperty
JSObjectIsConstructor
JSObjectIsFunction
JSObjectMake
JSObjectMakeArray
JSObjectMakeConstructor
JSObjectMakeDate
JSObjectMakeError
JSObjectMakeFunction
JSObjectMakeFunctionWithCallback
JSObjectMakeRegExp
JSObjectSetPrivate
JSObjectSetPrivateProperty
JSObjectSetProperty
JSObjectSetPropertyAtIndex
JSObjectSetPrototype
JSPropertyNameAccumulatorAddName
JSPropertyNameArrayGetCount
JSPropertyNameArrayGetNameAtIndex
JSPropertyNameArrayRelease
JSPropertyNameArrayRetain
JSReportExtraMemoryCost
JSStringCreateWithCharacters
JSStringCreateWithCharactersNoCopy
JSStringCreateWithUTF8CString
JSStringGetCharactersPtr
JSStringGetLength
JSStringGetMaximumUTF8CStringSize
JSStringGetUTF8CString
JSStringIsEqual
JSStringIsEqualToUTF8CString
JSStringRelease
JSStringRetain
JSSynchronousEdenCollectForDebugging
JSSynchronousGarbageCollectForDebugging
JSValueCreateJSONString
JSValueGetType
JSValueIsArray
JSValueIsBoolean
JSValueIsDate
JSValueIsEqual
JSValueIsInstanceOfConstructor
JSValueIsNull
JSValueIsNumber
JSValueIsObject
JSValueIsObjectOfClass
JSValueIsStrictEqual
JSValueIsString
JSValueIsUndefined
JSValueMakeBoolean
JSValueMakeFromJSONString
JSValueMakeNull
JSValueMakeNumber
JSValueMakeString
JSValueMakeUndefined
JSValueProtect
JSValueToBoolean
JSValueToNumber
JSValueToObject
JSValueToStringCopy
JSValueUnprotect
kJSClassDefinitionEmpty

