_JSCheckScriptSyntax
_JSClassCreate
_JSClassRelease
_JSClassRetain
_JSContextCreateBacktrace
_JSContextGetGlobalContext
_JSContextGetGlobalObject
_JSContextGetGroup
_JSContextGroupClearExecutionTimeLimit
_JSContextGroupCreate
_JSContextGroupRelease
_JSContextGroupRetain
_JSContextGroupSetExecutionTimeLimit
_JSDisableGCTimer
_JSEvaluateScript
_JSGarbageCollect
_JSGlobalContextCopyName
_JSGlobalContextCreate
_JSGlobalContextCreateInGroup
_JSGlobalContextGetIncludesNativeCallStackWhenReportingExceptions
_JSGlobalContextGetRemoteInspectionEnabled
_JSGlobalContextRelease
_JSGlobalContextRetain
_JSGlobalContextSetIncludesNativeCallStackWhenReportingExceptions
_JSGlobalContextSetName
_JSGlobalContextSetRemoteInspectionEnabled
_JSObjectCallAsConstructor
_JSObjectCallAsFunction
_JSObjectCopyPropertyNames
_JSObjectDeletePrivateProperty
_JSObjectDeleteProperty
_JSObjectGetPrivate
_JSObjectGetPrivateProperty
_JSObjectGetProperty
_JSObjectGetPropertyAtIndex
_JSObjectGetPrototype
_JSObjectHasProperty
_JSObjectIsConstructor
_JSObjectIsFunction
_JSObjectMake
_JSObjectMakeArray
_JSObjectMakeConstructor
_JSObjectMakeDate
_JSObjectMakeError
_JSObjectMakeFunction
_JSObjectMakeFunctionWithCallback
_JSObjectMakeRegExp
_JSObjectSetPrivate
_JSObjectSetPrivateProperty
_JSObjectSetProperty
_JSObjectSetPropertyAtIndex
_JSObjectSetPrototype
_JSPropertyNameAccumulatorAddName
_JSPropertyNameArrayGetCount
_JSPropertyNameArrayGetNameAtIndex
_JSPropertyNameArrayRelease
_JSPropertyNameArrayRetain
_JSReportExtraMemoryCost
_JSStringCreateWithCharacters
_JSStringCreateWithCharactersNoCopy
_JSStringCreateWithUTF8CString
_JSStringGetCharactersPtr
_JSStringGetLength
_JSStringGetMaximumUTF8CStringSize
_JSStringGetUTF8CString
_JSStringIsEqual
_JSStringIsEqualToUTF8CString
_JSStringRelease
_JSStringRetain
_JSSynchronousEdenCollectForDebugging
_JSSynchronousGarbageCollectForDebugging
_JSValueCreateJSONString
_JSValueGetType
_JSValueIsArray
_JSValueIsBoolean
_JSValueIsDate
_JSValueIsEqual
_JSValueIsInstanceOfConstructor
_JSValueIsNull
_JSValueIsNumber
_JSValueIsObject
_JSValueIsObjectOfClass
_JSValueIsStrictEqual
_JSValueIsString
_JSValueIsUndefined
_JSValueMakeBoolean
_JSValueMakeFromJSONString
_JSValueMakeNull
_JSValueMakeNumber
_JSValueMakeString
_JSValueMakeUndefined
_JSValueProtect
_JSValueToBoolean
_JSValueToNumber
_JSValueToObject
_JSValueToStringCopy
_JSValueUnprotect
__ZN3JSC14JSGlobalObject10globalExecEv
__ZN3JSC19initializeThreadingEv
__ZN3WTF10StringImpl7destroyEPS0_
__ZN3WTF10fastMallocEm
__ZN3WTF11emptyStringEv
__ZN3WTF11fastReallocEPvm
__ZN3WTF16AtomicStringImpl11addSlowCaseERNS_10StringImplE
__ZN3WTF16AtomicStringImpl11addSlowCaseERNS_17AtomicStringTableERNS_10StringImplE
__ZN3WTF16AtomicStringImpl3addEPKh
__ZN3WTF16AtomicStringImpl3addEPKhj
__ZN3WTF16AtomicStringImpl3addEPKt
__ZN3WTF16AtomicStringImpl3addEPKtj
__ZN3WTF16AtomicStringImpl3addEPKtjj
__ZN3WTF16AtomicStringImpl3addEPNS_10StringImplEjj
__ZN3WTF16AtomicStringImpl7addUTF8EPKcS2_
__ZN3WTF16fastZeroedMallocEm
__ZN3WTF20initializeMainThreadEv
__ZN3WTF5equalEPKNS_10StringImplEPKh
__ZN3WTF5equalEPKNS_10StringImplEPKhj
__ZN3WTF5equalEPKNS_10StringImplEPKtj
__ZN3WTF5equalEPKNS_10StringImplES2_
__ZN3WTF5equalERKNS_10StringImplES2_
__ZN3WTF6StringC1ENS_12ASCIILiteralE
__ZN3WTF6StringC1EPKc
__ZN3WTF6StringC1EPKcj
__ZN3WTF6StringC1EPKh
__ZN3WTF6StringC1EPKhj
__ZN3WTF6StringC1EPKt
__ZN3WTF6StringC1EPKtj
__ZN3WTF6StringC2ENS_12ASCIILiteralE
__ZN3WTF6StringC2EPKc
__ZN3WTF6StringC2EPKcj
__ZN3WTF6StringC2EPKh
__ZN3WTF6StringC2EPKhj
__ZN3WTF6StringC2EPKt
__ZN3WTF6StringC2EPKtj
__ZN3WTF7RunLoop21initializeMainRunLoopEv
__ZN3WTF7RunLoop7currentEv
__ZN3WTF7RunLoop7iterateEv
__ZN3WTF7Unicode18convertUTF8ToUTF16EPPKcS2_PPtS4_Pbb
__ZN3WTF8WallTime3nowEv
__ZN3WTF8fastFreeEPv
__ZN7WebCore10ScrollView5paintERNS_15GraphicsContextERKNS_7IntRectENS_6Widget25SecurityOriginPaintPolicyE
__ZN7WebCore11FrameLoader14stopAllLoadersENS_26ClearProvisionalItemPolicyE
__ZN7WebCore11FrameLoader21loadURLIntoChildFrameERKNS_3URLERKN3WTF6StringEPNS_5FrameE
__ZN7WebCore11FrameLoader4initEv
__ZN7WebCore11FrameLoader4loadERKNS_16FrameLoadRequestE
__ZN7WebCore11FrameLoader6reloadEbb
__ZN7WebCore11HistoryItemD1Ev
__ZN7WebCore11HistoryItemD2Ev
__ZN7WebCore12EventHandler10mouseMovedERKNS_18PlatformMouseEventE
__ZN7WebCore12EventHandler16handleWheelEventERKNS_18PlatformWheelEventE
__ZN7WebCore12EventHandler21handleMousePressEventERKNS_18PlatformMouseEventE
__ZN7WebCore12EventHandler21handleMousePressEventERKNS_28MouseEventWithHitTestResultsE
__ZN7WebCore12EventHandler23handleMouseReleaseEventERKNS_18PlatformMouseEventE
__ZN7WebCore12EventHandler23handleMouseReleaseEventERKNS_28MouseEventWithHitTestResultsE
__ZN7WebCore12EventHandler8keyEventERKNS_21PlatformKeyboardEventE
__ZN7WebCore12SharedBufferC1EPKcj
__ZN7WebCore12SharedBufferC1EPKhj
__ZN7WebCore12SharedBufferC1Ev
__ZN7WebCore12SharedBufferC2EPKcj
__ZN7WebCore12SharedBufferC2EPKhj
__ZN7WebCore12SharedBufferC2Ev
__ZN7WebCore12SharedBufferD1Ev
__ZN7WebCore12SharedBufferD2Ev
__ZN7WebCore12deleteCookieERKNS_21NetworkStorageSessionERKNS_3URLERKN3WTF6StringE
__ZN7WebCore13GraphicsLayer17removeAllChildrenEv
__ZN7WebCore13GraphicsLayer6createEPNS_20GraphicsLayerFactoryERNS_19GraphicsLayerClientENS0_4TypeE
__ZN7WebCore13HTTPHeaderMapC1Ev
__ZN7WebCore13HTTPHeaderMapC2Ev
__ZN7WebCore13cookiesForDOMERKNS_21NetworkStorageSessionERKNS_3URLES5_
__ZN7WebCore13getRawCookiesERKNS_21NetworkStorageSessionERKNS_3URLES5_RN3WTF6VectorINS_6CookieELm0ENS6_15CrashOnOverflowELm16EEE
__ZN7WebCore14DocumentLoader10commitDataEPKcm
__ZN7WebCore14DocumentLoader12dataReceivedERNS_14CachedResourceEPKci
__ZN7WebCore14DocumentLoader13attachToFrameEv
__ZN7WebCore14DocumentLoader14notifyFinishedERNS_14CachedResourceE
__ZN7WebCore14DocumentLoader15detachFromFrameEv
__ZN7WebCore14DocumentLoader16redirectReceivedERNS_14CachedResourceERNS_15ResourceRequestERKNS_16ResourceResponseE
__ZN7WebCore14DocumentLoader16responseReceivedERNS_14CachedResourceERKNS_16ResourceResponseE
__ZN7WebCore14DocumentLoader22cancelMainResourceLoadERKNS_13ResourceErrorE
__ZN7WebCore14DocumentLoaderC1ERKNS_15ResourceRequestERKNS_14SubstituteDataE
__ZN7WebCore14DocumentLoaderC2ERKNS_15ResourceRequestERKNS_14SubstituteDataE
__ZN7WebCore14DocumentLoaderD0Ev
__ZN7WebCore14DocumentLoaderD1Ev
__ZN7WebCore14DocumentLoaderD2Ev
__ZN7WebCore14FrameSelection10setFocusedEb
__ZN7WebCore14LoaderStrategyD0Ev
__ZN7WebCore14LoaderStrategyD1Ev
__ZN7WebCore14LoaderStrategyD2Ev
__ZN7WebCore14ResourceHandle11clearClientEv
__ZN7WebCore14ResourceHandle23continueWillSendRequestEONS_15ResourceRequestE
__ZN7WebCore14ResourceHandle25loadResourceSynchronouslyEPNS_17NetworkingContextERKNS_15ResourceRequestENS_17StoredCredentialsERNS_13ResourceErrorERNS_16ResourceResponseERN3WTF6VectorIcLm0ENSB_15CrashOnOverflowELm16EEE
__ZN7WebCore14ResourceHandle6createEPNS_17NetworkingContextERKNS_15ResourceRequestEPNS_20ResourceHandleClientEbb
__ZN7WebCore14ResourceLoader5startEv
__ZN7WebCore14SQLiteDatabaseD1Ev
__ZN7WebCore14SQLiteDatabaseD2Ev
__ZN7WebCore14cookiesEnabledERKNS_21NetworkStorageSessionERKNS_3URLES5_
__ZN7WebCore15FocusController9setActiveEb
__ZN7WebCore15GraphicsContext4clipERKNS_9FloatRectE
__ZN7WebCore15GraphicsContext4saveEv
__ZN7WebCore15GraphicsContext7restoreEv
__ZN7WebCore15GraphicsContextC1EN10ultralight6RefPtrINS1_6CanvasEEE
__ZN7WebCore15GraphicsContextC1EPNS_25PlatformContextUltralightE
__ZN7WebCore15GraphicsContextC2EN10ultralight6RefPtrINS1_6CanvasEEE
__ZN7WebCore15GraphicsContextC2EPNS_25PlatformContextUltralightE
__ZN7WebCore15GraphicsContextD1Ev
__ZN7WebCore15GraphicsContextD2Ev
__ZN7WebCore15mimeTypeFromURLERKNS_3URLE
__ZN7WebCore16DatabaseProviderD0Ev
__ZN7WebCore16DatabaseProviderD1Ev
__ZN7WebCore16DatabaseProviderD2Ev
__ZN7WebCore16FrameLoadRequestC1EPNS_5FrameERKNS_15ResourceRequestENS_28ShouldOpenExternalURLsPolicyERKNS_14SubstituteDataE
__ZN7WebCore16FrameLoadRequestC2EPNS_5FrameERKNS_15ResourceRequestENS_28ShouldOpenExternalURLsPolicyERKNS_14SubstituteDataE
__ZN7WebCore16MIMETypeRegistry15canShowMIMETypeERKN3WTF6StringE
__ZN7WebCore16MIMETypeRegistry24isSupportedImageMIMETypeERKN3WTF6StringE
__ZN7WebCore16MIMETypeRegistry27isSupportedNonImageMIMETypeERKN3WTF6StringE
__ZN7WebCore16ScriptController10initScriptERNS_15DOMWrapperWorldE
__ZN7WebCore16VisitedLinkStoreC2Ev
__ZN7WebCore16VisitedLinkStoreD0Ev
__ZN7WebCore16VisitedLinkStoreD1Ev
__ZN7WebCore16VisitedLinkStoreD2Ev
__ZN7WebCore16enclosingIntRectERKNS_9FloatRectE
__ZN7WebCore16threadGlobalDataEv
__ZN7WebCore16ThreadGlobalDataC1Ev
__ZN7WebCore16ThreadGlobalDataC2Ev
__ZN7WebCore17PageConfigurationC1EON3WTF9UniqueRefINS_12EditorClientEEEONS1_3RefINS_14SocketProviderEEE
__ZN7WebCore17PageConfigurationC2EON3WTF9UniqueRefINS_12EditorClientEEEONS1_3RefINS_14SocketProviderEEE
__ZN7WebCore17PageConfigurationD1Ev
__ZN7WebCore17PageConfigurationD2Ev
__ZN7WebCore17SubresourceLoader6createERNS_5FrameERNS_14CachedResourceERKNS_15ResourceRequestERKNS_21ResourceLoaderOptionsE
__ZN7WebCore17setCookiesFromDOMERKNS_21NetworkStorageSessionERKNS_3URLES5_RKN3WTF6StringE
__ZN7WebCore18PluginInfoProviderD0Ev
__ZN7WebCore18PluginInfoProviderD1Ev
__ZN7WebCore18PluginInfoProviderD2Ev
__ZN7WebCore18platformStrategiesEv
__ZN7WebCore19ResourceRequestBase24s_defaultTimeoutIntervalE
__ZN7WebCore19UserContentProviderC2Ev
__ZN7WebCore19UserContentProviderD0Ev
__ZN7WebCore19UserContentProviderD1Ev
__ZN7WebCore19UserContentProviderD2Ev
__ZN7WebCore20ResourceHandleClient23didReceiveResponseAsyncEPNS_14ResourceHandleEONS_16ResourceResponseE
__ZN7WebCore20ResourceHandleClientC1Ev
__ZN7WebCore20ResourceHandleClientC2Ev
__ZN7WebCore20ResourceHandleClientD0Ev
__ZN7WebCore20ResourceHandleClientD1Ev
__ZN7WebCore20ResourceHandleClientD2Ev
__ZN7WebCore20ResourceResponseBaseC1ERKNS_3URLERKN3WTF6StringExS7_
__ZN7WebCore20ResourceResponseBaseC1Ev
__ZN7WebCore20ResourceResponseBaseC2ERKNS_3URLERKN3WTF6StringExS7_
__ZN7WebCore20ResourceResponseBaseC2Ev
__ZN7WebCore20TransformationMatrix5scaleEd
__ZN7WebCore20TransformationMatrix9translateEdd
__ZN7WebCore21BackForwardController15goBackOrForwardEi
__ZN7WebCore21BackForwardController6goBackEv
__ZN7WebCore21BackForwardController9goForwardEv
__ZN7WebCore21MainThreadSharedTimer6updateEv
__ZN7WebCore21MainThreadSharedTimer9singletonEv
__ZN7WebCore21NetworkStorageSession14destroySessionENS_9SessionIDE
__ZN7WebCore21NetworkStorageSession14storageSessionENS_9SessionIDE
__ZN7WebCore21NetworkStorageSession21defaultStorageSessionEv
__ZN7WebCore21mainThreadNormalWorldEv
__ZN7WebCore21setPlatformStrategiesEPNS_18PlatformStrategiesE
__ZN7WebCore23ApplicationCacheStorage6createERKN3WTF6StringES4_
__ZN7WebCore23GraphicsLayerUltralight17ComputeTransformsEv
__ZN7WebCore23GraphicsLayerUltralight5PaintEN10ultralight6RefPtrINS1_6CanvasEEE
__ZN7WebCore23GraphicsLayerUltralight6UpdateEv
__ZN7WebCore24StorageNamespaceProviderC2Ev
__ZN7WebCore24StorageNamespaceProviderD0Ev
__ZN7WebCore24StorageNamespaceProviderD1Ev
__ZN7WebCore24StorageNamespaceProviderD2Ev
__ZN7WebCore26NetscapePlugInStreamLoader6createERNS_5FrameERNS_32NetscapePlugInStreamLoaderClientERKNS_15ResourceRequestE
__ZN7WebCore29cookieRequestHeaderFieldValueERKNS_21NetworkStorageSessionERKNS_3URLES5_
__ZN7WebCore3URL10invalidateEv
__ZN7WebCore3URLC1ENS_18ParsedURLStringTagERKN3WTF6StringE
__ZN7WebCore3URLC1ERKS0_RKN3WTF6StringE
__ZN7WebCore3URLC2ENS_18ParsedURLStringTagERKN3WTF6StringE
__ZN7WebCore3URLC2ERKS0_RKN3WTF6StringE
__ZN7WebCore43initializeMaximumHTTPConnectionCountPerHostEv
__ZN7WebCore4Page20setDeviceScaleFactorEf
__ZN7WebCore4PageC1EONS_17PageConfigurationE
__ZN7WebCore4PageC2EONS_17PageConfigurationE
__ZN7WebCore5Color10tagAsValidEv
__ZN7WebCore5ColorD1Ev
__ZN7WebCore5ColorD2Ev
__ZN7WebCore5Frame10createViewERKNS_7IntSizeERKNS_5ColorEbS3_RKNS_7IntRectEbNS_13ScrollbarModeEbSA_b
__ZN7WebCore5Frame6createEPNS_4PageEPNS_21HTMLFrameOwnerElementEPNS_17FrameLoaderClientE
__ZN7WebCore6Editor10insertTextERKN3WTF6StringEPNS_5EventENS_18TextEventInputTypeE
__ZN7WebCore6Editor7commandERKN3WTF6StringE
__ZN7WebCore7IntRect5scaleEf
__ZN7WebCore7IntRectC1ERKNS_9FloatRectE
__ZN7WebCore7IntRectC2ERKNS_9FloatRectE
__ZN7WebCore8FormDataD1Ev
__ZN7WebCore8FormDataD2Ev
__ZN7WebCore8Settings16setImagesEnabledEb
__ZN7WebCore8Settings16setScriptEnabledEb
__ZN7WebCore8Settings18setFixedFontFamilyERKN3WTF12AtomicStringE11UScriptCode
__ZN7WebCore8Settings18setSerifFontFamilyERKN3WTF12AtomicStringE11UScriptCode
__ZN7WebCore8Settings20setCursiveFontFamilyERKN3WTF12AtomicStringE11UScriptCode
__ZN7WebCore8Settings20setFantasyFontFamilyERKN3WTF12AtomicStringE11UScriptCode
__ZN7WebCore8Settings21setStandardFontFamilyERKN3WTF12AtomicStringE11UScriptCode
__ZN7WebCore8Settings22setSansSerifFontFamilyERKN3WTF12AtomicStringE11UScriptCode
__ZN7WebCore8Settings23setPictographFontFamilyERKN3WTF12AtomicStringE11UScriptCode
__ZN7WebCore8Settings27setLoadsImagesAutomaticallyEb
__ZN7WebCore9FloatSizeC1ERKNS_7IntSizeE
__ZN7WebCore9FloatSizeC2ERKNS_7IntSizeE
__ZN7WebCore9FrameTree11appendChildEN3WTF10PassRefPtrINS_5FrameEEE
__ZN7WebCore9FrameTree7setNameERKN3WTF12AtomicStringE
__ZN7WebCore9FrameView37updateLayoutAndStyleIfNeededRecursiveEv
__ZN7WebCore9FrameView39flushCompositingStateIncludingSubframesEv
__ZN7WebCore9FrameView6layoutEb
__ZN7WebCore9PageCache6removeERNS_11HistoryItemE
__ZN7WebCore9PageCache9singletonEv
__ZN7WebCore9TimerBase4stopEv
__ZN7WebCore9TimerBase5startEdd
__ZN7WebCore9TimerBaseC2Ev
__ZN7WebCore9TimerBaseD0Ev
__ZN7WebCore9TimerBaseD1Ev
__ZN7WebCore9TimerBaseD2Ev
__ZN7WebCore9addCookieERKNS_21NetworkStorageSessionERKNS_3URLERKNS_6CookieE
__ZNK3WTF10StringImpl12hashSlowCaseEv
__ZNK3WTF6String23convertToASCIILowercaseEv
__ZNK3WTF6String4utf8Ev
__ZNK7WebCore12SharedBuffer4sizeEv
__ZNK7WebCore13KeyboardEvent7keyCodeEv
__ZNK7WebCore13KeyboardEvent8charCodeEv
__ZNK7WebCore14DocumentLoader21archiveResourceForURLERKNS_3URLE
__ZNK7WebCore14ResourceLoader11frameLoaderEv
__ZNK7WebCore15FocusController18focusedOrMainFrameEv
__ZNK7WebCore17FrameLoaderClient11hasHTMLViewEv
__ZNK7WebCore17ResourceErrorBase8lazyInitEv
__ZNK7WebCore19ResourceRequestBase3urlEv
__ZNK7WebCore19ResourceRequestBase8priorityEv
__ZNK7WebCore20ResourceResponseBase14httpStatusCodeEv
__ZNK7WebCore20ResourceResponseBase3urlEv
__ZNK7WebCore20ResourceResponseBase8mimeTypeEv
__ZNK7WebCore21BackForwardController12forwardCountEv
__ZNK7WebCore21BackForwardController9backCountEv
__ZNK7WebCore3URL4hostEv
__ZNK7WebCore5Frame15contentRendererEv
__ZNK7WebCore6Editor7Command15isTextInsertionEv
__ZNK7WebCore6Editor7Command7executeEPNS_5EventE
__ZNK7WebCore8Document21haveStylesheetsLoadedEv
__ZNK7WebCore9FrameTree6parentEv
__ZNK7WebCore9FrameView11needsLayoutEv
__ZTVN7WebCore16BlobRegistryImplE
__ZTVN7WebCore12BlobRegistryE
__ZTVN7WebCore12ChromeClientE
__ZTVN7WebCore14LoaderStrategyE
__ZTVN7WebCore16DatabaseProviderE
__ZTVN7WebCore17FrameLoaderClientE
__ZTVN7WebCore18PluginInfoProviderE
__ZN7WebCore9FrameView14setNeedsLayoutEv
__ZNK7WebCore6Widget9frameRectEv
_ConvertUTF16ToUTF32
_ConvertUTF16ToUTF8
_ConvertUTF32ToUTF16
_ConvertUTF8ToUTF16
